target datalayout = "e-m:e-p270:32:32-p271:32:32-p272:64:64-i64:64-i128:128-f80:128-n8:16:32:64-S128"
target triple = "x86_64-pc-linux-gnu"

%struct.filter_expression_data = type { ptr, i8 }

; Function Attrs: mustprogress uwtable
define void @_ZN23FilterExpressionToolBar24filterExpressionsChangedEv(ptr noundef nonnull align 8 dereferenceable(52) %0) #0 align 2 {
  %2 = alloca ptr, align 8
  %3 = alloca %struct.filter_expression_data, align 8
  store ptr %0, ptr %2, align 8
  %4 = load ptr, ptr %2, align 8
  %5 = getelementptr inbounds %struct.filter_expression_data, ptr %3, i32 0, i32 0
  store ptr %4, ptr %5, align 8
  %6 = getelementptr inbounds %struct.filter_expression_data, ptr %3, i32 0, i32 1
  store i8 0, ptr %6, align 8
  %7 = load ptr, ptr %4, align 8
  %8 = getelementptr inbounds ptr, ptr %7, i64 53
  %9 = load ptr, ptr %8, align 8
  call void %9(ptr noundef nonnull align 8 dereferenceable(52) %4)
  call void @_ZN7QWidget17setUpdatesEnabledEb(ptr noundef nonnull align 8 dereferenceable(40) %4, i1 noundef zeroext false)
  call void @_ZN7QWidget4hideEv(ptr noundef nonnull align 8 dereferenceable(40) %4)
  call void @filter_expression_iterate_expressions(ptr noundef @_ZN23FilterExpressionToolBar28filter_expression_add_actionEPKvPvS2_, ptr noundef %3)
  call void @_ZN7QWidget4showEv(ptr noundef nonnull align 8 dereferenceable(40) %4)
  call void @_ZN7QWidget17setUpdatesEnabledEb(ptr noundef nonnull align 8 dereferenceable(40) %4, i1 noundef zeroext true)
  ret void
}