; Function Attrs: mustprogress uwtable
define void @_ZN23FilterExpressionToolBar24filterExpressionsChangedEv(ptr noundef nonnull align 8 dereferenceable(52) %0) #0 align 2 {
  %2 = alloca %struct.filter_expression_data, align 8
  store ptr %0, ptr %2, align 8
  %3 = getelementptr inbounds i8, ptr %2, i64 8
  store i8 0, ptr %3, align 8
  %4 = load ptr, ptr %0, align 8
  %5 = getelementptr inbounds i8, ptr %4, i64 424
  %6 = load ptr, ptr %5, align 8
  tail call void %6(ptr noundef nonnull align 8 dereferenceable(52) %0)
  tail call void @_ZN7QWidget17setUpdatesEnabledEb(ptr noundef nonnull align 8 dereferenceable(40) %0, i1 noundef zeroext false)
  tail call void @_ZN7QWidget4hideEv(ptr noundef nonnull align 8 dereferenceable(40) %0)
  call void @filter_expression_iterate_expressions(ptr noundef nonnull @_ZN23FilterExpressionToolBar28filter_expression_add_actionEPKvPvS2_, ptr noundef nonnull %2)
  call void @_ZN7QWidget4showEv(ptr noundef nonnull align 8 dereferenceable(40) %0)
  call void @_ZN7QWidget17setUpdatesEnabledEb(ptr noundef nonnull align 8 dereferenceable(40) %0, i1 noundef zeroext true)
  ret void
}